; Function Attrs: mustprogress nofree norecurse nosync nounwind willreturn memory(read, inaccessiblemem: none) uwtable
define noundef signext i8 @_ZNK10open_spiel9coin_game9CoinState8GetFieldESt4pairIiiE(ptr nocapture noundef nonnull readonly align 8 dereferenceable(288) %0, i64 %1) local_unnamed_addr #7 align 2 {
  %.sroa.0.0.extract.trunc = trunc i64 %1 to i32
  %.sroa.2.0.extract.shift = lshr i64 %1, 32
  %.sroa.2.0.extract.trunc = trunc nuw i64 %.sroa.2.0.extract.shift to i32
  %3 = getelementptr inbounds nuw i8, ptr %0, i64 240
  %4 = getelementptr inbounds nuw i8, ptr %0, i64 64
  %5 = load ptr, ptr %4, align 8
  %6 = getelementptr inbounds nuw i8, ptr %5, i64 288
  %7 = load i32, ptr %6, align 8
  %8 = mul nsw i32 %7, %.sroa.0.0.extract.trunc
  %9 = add nsw i32 %8, %.sroa.2.0.extract.trunc
  %10 = sext i32 %9 to i64
  %11 = load ptr, ptr %3, align 8
  %12 = getelementptr inbounds i8, ptr %11, i64 %10
  %13 = load i8, ptr %12, align 1
  ret i8 %13
}